BL51 BANKED LINKER/LOCATER V6.22.2.0                                                    03/19/2024  17:03:06  PAGE 1


BL51 BANKED LINKER/LOCATER V6.22.2.0, INVOKED BY:
D:\KEIL_V5\C51\BIN\BL51.EXE .\Objects\main.obj, .\Objects\Key.obj, .\Objects\ds1302.obj, .\Objects\iic.obj, .\Objects\in
>> it.obj, .\Objects\Led.obj, .\Objects\onewire.obj, .\Objects\Seg.obj TO .\Objects\test14 PRINT (.\Listings\test14.m51)
>>  RAMSIZE (256)


MEMORY MODEL: SMALL WITH FLOATING POINT ARITHMETIC


INPUT MODULES INCLUDED:
  .\Objects\main.obj (MAIN)
  .\Objects\Key.obj (KEY)
  .\Objects\ds1302.obj (DS1302)
  .\Objects\iic.obj (IIC)
  .\Objects\init.obj (INIT)
  .\Objects\Led.obj (LED)
  .\Objects\onewire.obj (ONEWIRE)
  .\Objects\Seg.obj (SEG)
  D:\KEIL_V5\C51\LIB\C51FPS.LIB (?C?FPMUL)
  D:\KEIL_V5\C51\LIB\C51FPS.LIB (?C?FPDIV)
  D:\KEIL_V5\C51\LIB\C51FPS.LIB (?C?FCAST)
  D:\KEIL_V5\C51\LIB\C51FPS.LIB (?C?CASTF)
  D:\KEIL_V5\C51\LIB\C51FPS.LIB (?C?FPGETOPN)
  D:\KEIL_V5\C51\LIB\C51S.LIB (?C_STARTUP)
  D:\KEIL_V5\C51\LIB\C51S.LIB (?C?CLDOPTR)
  D:\KEIL_V5\C51\LIB\C51S.LIB (?C?CSTOPTR)
  D:\KEIL_V5\C51\LIB\C51S.LIB (?C?IMUL)
  D:\KEIL_V5\C51\LIB\C51S.LIB (?C?UIDIV)
  D:\KEIL_V5\C51\LIB\C51S.LIB (?C?LNEG)
  D:\KEIL_V5\C51\LIB\C51S.LIB (?C_INIT)


LINK MAP OF MODULE:  .\Objects\test14 (MAIN)


            TYPE    BASE      LENGTH    RELOCATION   SEGMENT NAME
            -----------------------------------------------------

            * * * * * * *   D A T A   M E M O R Y   * * * * * * *
            REG     0000H     0008H     ABSOLUTE     "REG BANK 0"
            DATA    0008H     0007H     UNIT         _DATA_GROUP_
            DATA    000FH     0002H     UNIT         ?DT?LED
                    0011H     000FH                  *** GAP ***
            BIT     0020H.0   0000H.6   UNIT         ?BI?MAIN
            BIT     0020H.6   0000H.2   UNIT         _BIT_GROUP_
            DATA    0021H     003EH     UNIT         ?DT?MAIN
            DATA    005FH     001AH     UNIT         ?DT?SEG
            IDATA   0079H     0001H     UNIT         ?STACK

            * * * * * * *   C O D E   M E M O R Y   * * * * * * *
            CODE    0000H     0003H     ABSOLUTE     
            CODE    0003H     0018H     UNIT         ?PR?_I2CSENDACK?IIC
            CODE    001BH     0003H     ABSOLUTE     
            CODE    001EH     0329H     UNIT         ?C?LIB_CODE
            CODE    0347H     0302H     UNIT         ?PR?SEG_PORC?MAIN
            CODE    0649H     00FAH     UNIT         ?PR?TIMER1_ISR?MAIN
            CODE    0743H     00BCH     UNIT         ?PR?KEY_PORC?MAIN
            CODE    07FFH     008CH     UNIT         ?C_C51STARTUP
BL51 BANKED LINKER/LOCATER V6.22.2.0                                                  03/19/2024  17:03:06  PAGE 2


            CODE    088BH     007AH     UNIT         ?PR?KEY_READ?KEY
            CODE    0905H     004BH     UNIT         ?C_INITSEG
            CODE    0950H     0046H     UNIT         ?PR?LED_PORC?MAIN
            CODE    0996H     0040H     UNIT         ?PR?RD_HUMIDITY?MAIN
            CODE    09D6H     003EH     UNIT         ?PR?_SET_RTC?DS1302
            CODE    0A14H     003DH     UNIT         ?PR?_READ_DS1302_BYTE?DS1302
            CODE    0A51H     003AH     UNIT         ?PR?_LED_DISP?LED
            CODE    0A8BH     0036H     UNIT         ?PR?_SEG_DISP?SEG
            CODE    0AC1H     0035H     UNIT         ?PR?_I2CSENDBYTE?IIC
            CODE    0AF6H     0034H     UNIT         ?PR?RD_TEMPERATURE?ONEWIRE
            CODE    0B2AH     0031H     UNIT         ?PR?_READ_RTC?DS1302
            CODE    0B5BH     002AH     UNIT         ?PR?_AD_READ?IIC
            CODE    0B85H     0027H     UNIT         ?PR?_WRITE_DS18B20?ONEWIRE
            CODE    0BACH     0027H     UNIT         ?PR?INIT_DS18B20?ONEWIRE
            CODE    0BD3H     0026H     UNIT         ?PR?I2CRECEIVEBYTE?IIC
            CODE    0BF9H     0024H     UNIT         ?PR?CLEAR_DATA?MAIN
            CODE    0C1DH     0023H     UNIT         ?PR?MAIN?MAIN
            CODE    0C40H     0023H     UNIT         ?PR?READ_DS18B20?ONEWIRE
            CODE    0C63H     001EH     UNIT         ?PR?_DELAY_ONEWIRE?ONEWIRE
            CODE    0C81H     001DH     UNIT         ?PR?SYSTEM_INIT?INIT
            CODE    0C9EH     001CH     UNIT         ?PR?SEG_RESET?MAIN
            CODE    0CBAH     001CH     UNIT         ?PR?_WRITE_DS1302?DS1302
            CODE    0CD6H     001AH     UNIT         ?PR?_I2C_DELAY?IIC
            CODE    0CF0H     0015H     UNIT         ?PR?TIMER1_INIT?MAIN
            CODE    0D05H     0015H     UNIT         ?PR?I2CWAITACK?IIC
            CODE    0D1AH     0014H     UNIT         ?PR?_WRITE_DS1302_BYTE?DS1302
            CODE    0D2EH     0013H     UNIT         ?PR?TIMER0_INIT?MAIN
            CODE    0D41H     000FH     UNIT         ?PR?DELAY750MS?MAIN
            CODE    0D50H     000FH     UNIT         ?PR?I2CSTART?IIC
            CODE    0D5FH     000CH     UNIT         ?PR?I2CSTOP?IIC



OVERLAY MAP OF MODULE:   .\Objects\test14 (MAIN)


SEGMENT                                  BIT_GROUP          DATA_GROUP 
  +--> CALLED SEGMENT                 START    LENGTH     START    LENGTH
-------------------------------------------------------------------------
?PR?TIMER1_ISR?MAIN                   -----    -----      -----    -----
  +--> ?PR?_SEG_DISP?SEG
  +--> ?PR?_LED_DISP?LED

?PR?_LED_DISP?LED                     0020H.6  0000H.1    -----    -----

*** NEW ROOT ***************************************************

?C_C51STARTUP                         -----    -----      -----    -----
  +--> ?PR?MAIN?MAIN
  +--> ?C_INITSEG

?PR?MAIN?MAIN                         -----    -----      -----    -----
  +--> ?PR?SYSTEM_INIT?INIT
  +--> ?PR?TIMER0_INIT?MAIN
  +--> ?PR?TIMER1_INIT?MAIN
  +--> ?PR?_SET_RTC?DS1302
  +--> ?PR?DELAY750MS?MAIN
BL51 BANKED LINKER/LOCATER V6.22.2.0                                                  03/19/2024  17:03:06  PAGE 3


  +--> ?PR?RD_TEMPERATURE?ONEWIRE
  +--> ?PR?KEY_PORC?MAIN
  +--> ?PR?SEG_PORC?MAIN
  +--> ?PR?LED_PORC?MAIN

?PR?_SET_RTC?DS1302                   -----    -----      0008H    0003H
  +--> ?PR?_WRITE_DS1302_BYTE?DS1302

?PR?_WRITE_DS1302_BYTE?DS1302         -----    -----      -----    -----
  +--> ?PR?_WRITE_DS1302?DS1302

?PR?RD_TEMPERATURE?ONEWIRE            -----    -----      -----    -----
  +--> ?PR?INIT_DS18B20?ONEWIRE
  +--> ?PR?_WRITE_DS18B20?ONEWIRE
  +--> ?PR?READ_DS18B20?ONEWIRE

?PR?INIT_DS18B20?ONEWIRE              0020H.7  0000H.1    -----    -----
  +--> ?PR?_DELAY_ONEWIRE?ONEWIRE

?PR?_WRITE_DS18B20?ONEWIRE            -----    -----      -----    -----
  +--> ?PR?_DELAY_ONEWIRE?ONEWIRE

?PR?READ_DS18B20?ONEWIRE              -----    -----      -----    -----
  +--> ?PR?_DELAY_ONEWIRE?ONEWIRE

?PR?KEY_PORC?MAIN                     -----    -----      -----    -----
  +--> ?PR?KEY_READ?KEY
  +--> ?PR?SEG_RESET?MAIN
  +--> ?PR?CLEAR_DATA?MAIN

?PR?SEG_PORC?MAIN                     -----    -----      0008H    0004H
  +--> ?PR?_AD_READ?IIC
  +--> ?PR?RD_TEMPERATURE?ONEWIRE
  +--> ?PR?RD_HUMIDITY?MAIN
  +--> ?PR?_READ_RTC?DS1302

?PR?_AD_READ?IIC                      -----    -----      -----    -----
  +--> ?PR?I2CSTART?IIC
  +--> ?PR?I2CWAITACK?IIC
  +--> ?PR?_I2CSENDBYTE?IIC
  +--> ?PR?I2CRECEIVEBYTE?IIC
  +--> ?PR?_I2CSENDACK?IIC
  +--> ?PR?I2CSTOP?IIC

?PR?I2CSTART?IIC                      -----    -----      -----    -----
  +--> ?PR?_I2C_DELAY?IIC

?PR?I2CWAITACK?IIC                    -----    -----      -----    -----
  +--> ?PR?_I2CSENDBYTE?IIC
  +--> ?PR?_I2C_DELAY?IIC

?PR?_I2CSENDBYTE?IIC                  -----    -----      -----    -----
  +--> ?PR?_I2C_DELAY?IIC

?PR?I2CRECEIVEBYTE?IIC                -----    -----      -----    -----
  +--> ?PR?_I2C_DELAY?IIC

BL51 BANKED LINKER/LOCATER V6.22.2.0                                                  03/19/2024  17:03:06  PAGE 4


?PR?_I2CSENDACK?IIC                   -----    -----      -----    -----
  +--> ?PR?_I2C_DELAY?IIC

?PR?I2CSTOP?IIC                       -----    -----      -----    -----
  +--> ?PR?_I2C_DELAY?IIC

?PR?_READ_RTC?DS1302                  -----    -----      000CH    0003H
  +--> ?PR?_READ_DS1302_BYTE?DS1302

?PR?_READ_DS1302_BYTE?DS1302          -----    -----      -----    -----
  +--> ?PR?_WRITE_DS1302?DS1302



SYMBOL TABLE OF MODULE:  .\Objects\test14 (MAIN)

  VALUE           TYPE          NAME
  ----------------------------------

  -------         MODULE        MAIN
  C:0000H         SYMBOL        _ICE_DUMMY_
  D:0080H         PUBLIC        P0
  D:0090H         PUBLIC        P1
  D:0025H         PUBLIC        aver_temperature_10x
  D:00A0H         PUBLIC        P2
  D:00B0H         PUBLIC        P3
  D:0027H         PUBLIC        re_show_mode
  D:0028H         PUBLIC        ucRtc
  D:00C0H         PUBLIC        P4
  C:0649H         PUBLIC        Timer1_ISR
  D:002BH         PUBLIC        time_100ms
  D:00C8H         PUBLIC        P5
  D:002CH         PUBLIC        trigger_count
  B:00A8H.7       PUBLIC        EA
  D:00E8H         PUBLIC        P6
  C:0C9EH         PUBLIC        Seg_Reset
  D:00F8H         PUBLIC        P7
  D:002DH         PUBLIC        trigger_time
  C:0950H         PUBLIC        Led_Porc
  D:0030H         PUBLIC        Seg_Point
  D:00A8H         PUBLIC        IE
  B:0020H.0       PUBLIC        Led_light_flag
  D:0038H         PUBLIC        old_temperature_10x
  C:0347H         PUBLIC        Seg_Porc
  D:00B8H         PUBLIC        IP
  D:003AH         PUBLIC        max_humidity
  D:003BH         PUBLIC        Seg_Buf
  C:0743H         PUBLIC        Key_Porc
  D:0043H         PUBLIC        Seg_Slow_Down
  D:00D8H         PUBLIC        CCON
  C:0C1DH         PUBLIC        main
  B:0020H.1       PUBLIC        wring_flag
  C:0996H         PUBLIC        rd_humidity
  C:0D2EH         PUBLIC        Timer0_Init
  C:0CF0H         PUBLIC        Timer1_Init
  D:0045H         PUBLIC        Key_Slow_Down
  D:0046H         PUBLIC        freq
BL51 BANKED LINKER/LOCATER V6.22.2.0                                                  03/19/2024  17:03:06  PAGE 5


  D:0048H         PUBLIC        Seg_Pos
  D:0098H         PUBLIC        SCON
  D:0089H         PUBLIC        TMOD
  D:0088H         PUBLIC        TCON
  D:0049H         PUBLIC        time_1s
  D:004BH         PUBLIC        time_2s
  D:004DH         PUBLIC        time_3s
  D:004FH         PUBLIC        old_light_value
  D:0050H         PUBLIC        para_temperature
  D:0051H         PUBLIC        aver_humidity_10x
  B:0020H.2       PUBLIC        long_press_flag
  D:008EH         PUBLIC        AUXR
  C:0BF9H         PUBLIC        Clear_Data
  B:0088H.5       PUBLIC        TF0
  B:00A8H.3       PUBLIC        ET1
  B:0088H.7       PUBLIC        TF1
  D:0053H         PUBLIC        Seg_show_mode
  D:008CH         PUBLIC        TH0
  D:008DH         PUBLIC        TH1
  D:0054H         PUBLIC        old_humidity_10x
  D:008AH         PUBLIC        TL0
  D:008BH         PUBLIC        TL1
  B:0088H.4       PUBLIC        TR0
  B:0088H.6       PUBLIC        TR1
  D:0056H         PUBLIC        max_temperature
  B:0020H.3       PUBLIC        data_up
  D:0057H         PUBLIC        ucLed
  C:0D41H         PUBLIC        Delay750ms
  B:0020H.4       PUBLIC        trigger_flag
  D:00D0H         PUBLIC        PSW
  B:0020H.5       PUBLIC        error_humidity_flag
  -------         PROC          CLEAR_DATA
  -------         DO            
  D:0007H         SYMBOL        i
  -------         ENDDO         
  C:0BF9H         LINE#         48
  C:0BF9H         LINE#         49
  C:0BF9H         LINE#         51
  C:0BFCH         LINE#         52
  C:0C00H         LINE#         53
  C:0C02H         LINE#         54
  C:0C06H         LINE#         55
  C:0C08H         LINE#         56
  C:0C13H         LINE#         57
  C:0C1CH         LINE#         58
  -------         ENDPROC       CLEAR_DATA
  -------         PROC          SEG_RESET
  -------         DO            
  D:0007H         SYMBOL        i
  -------         ENDDO         
  C:0C9EH         LINE#         60
  C:0C9EH         LINE#         61
  C:0C9EH         LINE#         63
  C:0CAAH         LINE#         64
  C:0CAAH         LINE#         65
  C:0CB0H         LINE#         66
  C:0CB6H         LINE#         67
BL51 BANKED LINKER/LOCATER V6.22.2.0                                                  03/19/2024  17:03:06  PAGE 6


  C:0CB9H         LINE#         68
  -------         ENDPROC       SEG_RESET
  -------         PROC          RD_HUMIDITY
  -------         DO            
  D:0004H         SYMBOL        humidity_value
  -------         ENDDO         
  C:0996H         LINE#         70
  C:0996H         LINE#         71
  C:0996H         LINE#         73
  C:09ACH         LINE#         74
  C:09B2H         LINE#         75
  C:09D5H         LINE#         76
  C:09D5H         LINE#         77
  -------         ENDPROC       RD_HUMIDITY
  -------         PROC          KEY_PORC
  -------         DO            
  D:0021H         SYMBOL        Key_Val
  D:0022H         SYMBOL        Key_Down
  D:0023H         SYMBOL        Key_Old
  D:0024H         SYMBOL        Key_Up
  -------         ENDDO         
  C:0743H         LINE#         80
  C:0743H         LINE#         81
  C:0743H         LINE#         83
  C:074AH         LINE#         85
  C:074DH         LINE#         87
  C:0752H         LINE#         88
  C:075BH         LINE#         89
  C:0761H         LINE#         90
  C:0764H         LINE#         92
  C:076AH         LINE#         93
  C:076AH         LINE#         94
  C:076DH         LINE#         95
  C:0778H         LINE#         96
  C:077BH         LINE#         97
  C:077BH         LINE#         98
  C:0787H         LINE#         99
  C:0787H         LINE#         100
  C:078AH         LINE#         101
  C:0795H         LINE#         102
  C:0795H         LINE#         103
  C:079EH         LINE#         104
  C:079EH         LINE#         105
  C:07A6H         LINE#         106
  C:07BDH         LINE#         107
  C:07C3H         LINE#         108
  C:07D4H         LINE#         109
  C:07D4H         LINE#         110
  C:07E0H         LINE#         111
  C:07E0H         LINE#         112
  C:07E6H         LINE#         113
  C:07E6H         LINE#         114
  C:07E8H         LINE#         115
  C:07E8H         LINE#         116
  C:07EEH         LINE#         117
  C:07EEH         LINE#         118
  C:07F9H         LINE#         119
BL51 BANKED LINKER/LOCATER V6.22.2.0                                                  03/19/2024  17:03:06  PAGE 7


  C:07FCH         LINE#         120
  C:07FEH         LINE#         121
  C:07FEH         LINE#         122
  C:07FEH         LINE#         123
  -------         ENDPROC       KEY_PORC
  -------         PROC          SEG_PORC
  -------         DO            
  D:0008H         SYMBOL        temp_temperature_10x
  D:000AH         SYMBOL        temp_humidity_10x
  D:0007H         SYMBOL        temp_light
  -------         ENDDO         
  C:0347H         LINE#         126
  C:0347H         LINE#         127
  C:0347H         LINE#         130
  C:0350H         LINE#         132
  C:0355H         LINE#         133
  C:035AH         LINE#         135
  C:0371H         LINE#         138
  C:0371H         LINE#         139
  C:0373H         LINE#         140
  C:037BH         LINE#         141
  C:037EH         LINE#         142
  C:0380H         LINE#         145
  C:038EH         LINE#         146
  C:0390H         LINE#         147
  C:0392H         LINE#         148
  C:0398H         LINE#         149
  C:0398H         LINE#         151
  C:039EH         LINE#         152
  C:03A1H         LINE#         154
  C:03A4H         LINE#         155
  C:03B8H         LINE#         156
  C:03CCH         LINE#         157
  C:03E0H         LINE#         158
  C:03F4H         LINE#         159
  C:03F7H         LINE#         161
  C:03FDH         LINE#         162
  C:03FDH         LINE#         163
  C:03FFH         LINE#         164
  C:0401H         LINE#         165
  C:0404H         LINE#         166
  C:0407H         LINE#         167
  C:0408H         LINE#         170
  C:0408H         LINE#         171
  C:0411H         LINE#         172
  C:0413H         LINE#         173
  C:042AH         LINE#         174
  C:044BH         LINE#         177
  C:044FH         LINE#         179
  C:0451H         LINE#         180
  C:0457H         LINE#         181
  C:045DH         LINE#         182
  C:0471H         LINE#         183
  C:0485H         LINE#         184
  C:0497H         LINE#         185
  C:04A9H         LINE#         186
  C:04CFH         LINE#         187
BL51 BANKED LINKER/LOCATER V6.22.2.0                                                  03/19/2024  17:03:06  PAGE 8


  C:04EDH         LINE#         188
  C:04EDH         LINE#         189
  C:04EEH         LINE#         191
  C:04EEH         LINE#         192
  C:0500H         LINE#         193
  C:0500H         LINE#         194
  C:0500H         LINE#         196
  C:0509H         LINE#         197
  C:0510H         LINE#         198
  C:0516H         LINE#         199
  C:0519H         LINE#         200
  C:0520H         LINE#         201
  C:0526H         LINE#         202
  C:0529H         LINE#         203
  C:0530H         LINE#         204
  C:0532H         LINE#         205
  C:0535H         LINE#         206
  C:0535H         LINE#         208
  C:0547H         LINE#         209
  C:0547H         LINE#         210
  C:0547H         LINE#         212
  C:054AH         LINE#         213
  C:0551H         LINE#         214
  C:0551H         LINE#         215
  C:055EH         LINE#         216
  C:0567H         LINE#         217
  C:056AH         LINE#         218
  C:057EH         LINE#         219
  C:0592H         LINE#         220
  C:0596H         LINE#         221
  C:0596H         LINE#         222
  C:0596H         LINE#         223
  C:0598H         LINE#         224
  C:0598H         LINE#         226
  C:059BH         LINE#         227
  C:05A2H         LINE#         228
  C:05A2H         LINE#         229
  C:05AFH         LINE#         230
  C:05B8H         LINE#         231
  C:05BBH         LINE#         232
  C:05CFH         LINE#         233
  C:05E3H         LINE#         234
  C:05F0H         LINE#         235
  C:05F3H         LINE#         236
  C:05F3H         LINE#         237
  C:05F4H         LINE#         238
  C:05F4H         LINE#         240
  C:05F7H         LINE#         241
  C:0604H         LINE#         242
  C:060DH         LINE#         243
  C:0611H         LINE#         244
  C:0611H         LINE#         245
  C:0618H         LINE#         246
  C:061EH         LINE#         247
  C:0621H         LINE#         248
  C:0628H         LINE#         249
  C:062EH         LINE#         250
BL51 BANKED LINKER/LOCATER V6.22.2.0                                                  03/19/2024  17:03:06  PAGE 9


  C:062EH         LINE#         251
  C:062FH         LINE#         252
  C:062FH         LINE#         253
  C:062FH         LINE#         254
  C:062FH         LINE#         256
  C:0632H         LINE#         257
  C:063FH         LINE#         258
  C:0648H         LINE#         259
  C:0648H         LINE#         260
  C:0648H         LINE#         261
  C:0648H         LINE#         262
  -------         ENDPROC       SEG_PORC
  -------         PROC          LED_PORC
  C:0950H         LINE#         265
  C:0950H         LINE#         266
  C:0950H         LINE#         268
  C:095FH         LINE#         269
  C:096DH         LINE#         270
  C:097BH         LINE#         272
  C:0989H         LINE#         273
  C:098FH         LINE#         274
  C:0995H         LINE#         275
  -------         ENDPROC       LED_PORC
  -------         PROC          TIMER0_INIT
  C:0D2EH         LINE#         279
  C:0D2EH         LINE#         280
  C:0D2EH         LINE#         281
  C:0D31H         LINE#         282
  C:0D34H         LINE#         283
  C:0D37H         LINE#         284
  C:0D3AH         LINE#         285
  C:0D3CH         LINE#         286
  C:0D3EH         LINE#         287
  C:0D40H         LINE#         288
  -------         ENDPROC       TIMER0_INIT
  -------         PROC          TIMER1_INIT
  C:0CF0H         LINE#         290
  C:0CF0H         LINE#         291
  C:0CF0H         LINE#         292
  C:0CF3H         LINE#         293
  C:0CF6H         LINE#         294
  C:0CF9H         LINE#         295
  C:0CFCH         LINE#         296
  C:0CFEH         LINE#         297
  C:0D00H         LINE#         298
  C:0D02H         LINE#         299
  C:0D04H         LINE#         300
  -------         ENDPROC       TIMER1_INIT
  -------         PROC          TIMER1_ISR
  C:0649H         LINE#         302
  C:0666H         LINE#         304
  C:066EH         LINE#         305
  C:0670H         LINE#         306
  C:067EH         LINE#         307
  C:0682H         LINE#         308
  C:068AH         LINE#         309
  C:068CH         LINE#         310
BL51 BANKED LINKER/LOCATER V6.22.2.0                                                  03/19/2024  17:03:06  PAGE 10


  C:069DH         LINE#         311
  C:069DH         LINE#         312
  C:06A3H         LINE#         313
  C:06ADH         LINE#         314
  C:06B0H         LINE#         315
  C:06B3H         LINE#         316
  C:06B3H         LINE#         317
  C:06B6H         LINE#         318
  C:06B6H         LINE#         319
  C:06C7H         LINE#         320
  C:06C7H         LINE#         321
  C:06CDH         LINE#         322
  C:06CDH         LINE#         323
  C:06CFH         LINE#         325
  C:06D5H         LINE#         327
  C:06D8H         LINE#         328
  C:06D8H         LINE#         329
  C:06E9H         LINE#         330
  C:06E9H         LINE#         331
  C:06EFH         LINE#         332
  C:06EFH         LINE#         333
  C:06F1H         LINE#         335
  C:06F7H         LINE#         338
  C:06FFH         LINE#         339
  C:06FFH         LINE#         340
  C:0701H         LINE#         341
  C:0706H         LINE#         342
  C:0706H         LINE#         344
  C:0719H         LINE#         345
  C:0728H         LINE#         346
  -------         ENDPROC       TIMER1_ISR
  -------         PROC          DELAY750MS
  -------         DO            
  D:0007H         SYMBOL        i
  D:0006H         SYMBOL        j
  D:0005H         SYMBOL        k
  -------         ENDDO         
  C:0D41H         LINE#         347
  C:0D41H         LINE#         348
  C:0D41H         LINE#         351
  C:0D42H         LINE#         352
  C:0D43H         LINE#         353
  C:0D45H         LINE#         354
  C:0D47H         LINE#         355
  C:0D49H         LINE#         357
  C:0D49H         LINE#         359
  C:0D49H         LINE#         360
  C:0D4BH         LINE#         362
  C:0D4DH         LINE#         363
  C:0D4FH         LINE#         364
  -------         ENDPROC       DELAY750MS
  -------         PROC          MAIN
  C:0C1DH         LINE#         366
  C:0C1DH         LINE#         367
  C:0C1DH         LINE#         369
  C:0C20H         LINE#         370
  C:0C23H         LINE#         371
BL51 BANKED LINKER/LOCATER V6.22.2.0                                                  03/19/2024  17:03:06  PAGE 11


  C:0C26H         LINE#         372
  C:0C2FH         LINE#         373
  C:0C32H         LINE#         374
  C:0C35H         LINE#         375
  C:0C35H         LINE#         376
  C:0C35H         LINE#         377
  C:0C38H         LINE#         378
  C:0C3BH         LINE#         379
  C:0C3EH         LINE#         380
  -------         ENDPROC       MAIN
  -------         ENDMOD        MAIN

  -------         MODULE        KEY
  C:0000H         SYMBOL        _ICE_DUMMY_
  D:0080H         PUBLIC        P0
  D:0090H         PUBLIC        P1
  D:00A0H         PUBLIC        P2
  D:00B0H         PUBLIC        P3
  D:00C0H         PUBLIC        P4
  D:00C8H         PUBLIC        P5
  D:00E8H         PUBLIC        P6
  D:00F8H         PUBLIC        P7
  C:088BH         PUBLIC        Key_Read
  D:00A8H         PUBLIC        IE
  D:00B8H         PUBLIC        IP
  D:00D8H         PUBLIC        CCON
  B:00B0H.0       PUBLIC        P30
  D:0098H         PUBLIC        SCON
  B:00B0H.1       PUBLIC        P31
  D:0088H         PUBLIC        TCON
  B:00B0H.2       PUBLIC        P32
  B:00C0H.2       PUBLIC        P42
  B:00B0H.3       PUBLIC        P33
  B:00B0H.4       PUBLIC        P34
  B:00C0H.4       PUBLIC        P44
  B:00B0H.5       PUBLIC        P35
  B:00A8H.1       PUBLIC        ET0
  D:00D0H         PUBLIC        PSW
  -------         PROC          KEY_READ
  -------         DO            
  D:0007H         SYMBOL        temp
  -------         ENDDO         
  C:088BH         LINE#         3
  C:088BH         LINE#         4
  C:088BH         LINE#         6
  C:088DH         LINE#         7
  C:088FH         LINE#         8
  C:0891H         LINE#         9
  C:0893H         LINE#         10
  C:0895H         LINE#         11
  C:0897H         LINE#         12
  C:089AH         LINE#         13
  C:089CH         LINE#         14
  C:089FH         LINE#         15
  C:08A1H         LINE#         16
  C:08A4H         LINE#         17
  C:08A6H         LINE#         18
BL51 BANKED LINKER/LOCATER V6.22.2.0                                                  03/19/2024  17:03:06  PAGE 12


  C:08A9H         LINE#         19
  C:08ABH         LINE#         20
  C:08ADH         LINE#         21
  C:08AFH         LINE#         22
  C:08B1H         LINE#         23
  C:08B3H         LINE#         24
  C:08B6H         LINE#         25
  C:08B8H         LINE#         26
  C:08BBH         LINE#         27
  C:08BDH         LINE#         28
  C:08C0H         LINE#         29
  C:08C2H         LINE#         30
  C:08C5H         LINE#         31
  C:08C7H         LINE#         32
  C:08C9H         LINE#         33
  C:08CBH         LINE#         34
  C:08CDH         LINE#         35
  C:08CFH         LINE#         36
  C:08D2H         LINE#         37
  C:08D4H         LINE#         38
  C:08D7H         LINE#         39
  C:08D9H         LINE#         40
  C:08DCH         LINE#         41
  C:08DEH         LINE#         42
  C:08E1H         LINE#         43
  C:08E3H         LINE#         44
  C:08E5H         LINE#         45
  C:08E7H         LINE#         46
  C:08E9H         LINE#         47
  C:08EBH         LINE#         48
  C:08EEH         LINE#         49
  C:08F0H         LINE#         50
  C:08F3H         LINE#         51
  C:08F5H         LINE#         52
  C:08F8H         LINE#         53
  C:08FAH         LINE#         54
  C:08FDH         LINE#         55
  C:08FFH         LINE#         56
  C:0901H         LINE#         57
  C:0904H         LINE#         58
  C:0904H         LINE#         59
  -------         ENDPROC       KEY_READ
  -------         ENDMOD        KEY

  -------         MODULE        DS1302
  C:0000H         SYMBOL        _ICE_DUMMY_
  D:0090H         PUBLIC        P1
  D:00A0H         PUBLIC        P2
  D:00B0H         PUBLIC        P3
  C:0B2AH         PUBLIC        _Read_Rtc
  D:00A8H         PUBLIC        IE
  D:00B8H         PUBLIC        IP
  D:0098H         PUBLIC        SCON
  D:0088H         PUBLIC        TCON
  C:09D6H         PUBLIC        _Set_Rtc
  C:0A14H         PUBLIC        _Read_Ds1302_Byte
  B:00A0H.3       PUBLIC        SDA
BL51 BANKED LINKER/LOCATER V6.22.2.0                                                  03/19/2024  17:03:06  PAGE 13


  B:0090H.7       PUBLIC        SCK
  C:0D1AH         PUBLIC        _Write_Ds1302_Byte
  D:00C8H         PUBLIC        T2CON
  C:0CBAH         PUBLIC        _Write_Ds1302
  B:0090H.3       PUBLIC        RST
  D:00D0H         PUBLIC        PSW
  -------         PROC          _WRITE_DS1302
  D:0007H         SYMBOL        temp
  -------         DO            
  D:0006H         SYMBOL        i
  -------         ENDDO         
  C:0CBAH         LINE#         14
  C:0CBAH         LINE#         15
  C:0CBAH         LINE#         17
  C:0CC6H         LINE#         18
  C:0CC6H         LINE#         19
  C:0CC8H         LINE#         20
  C:0CCCH         LINE#         21
  C:0CD0H         LINE#         22
  C:0CD2H         LINE#         23
  C:0CD5H         LINE#         24
  -------         ENDPROC       _WRITE_DS1302
  -------         PROC          _WRITE_DS1302_BYTE
  D:0007H         SYMBOL        address
  D:0005H         SYMBOL        dat
  C:0D1AH         LINE#         27
  C:0D1AH         LINE#         28
  C:0D1AH         LINE#         29
  C:0D1CH         LINE#         30
  C:0D1DH         LINE#         31
  C:0D1FH         LINE#         32
  C:0D20H         LINE#         33
  C:0D22H         LINE#         34
  C:0D23H         LINE#         35
  C:0D26H         LINE#         36
  C:0D2BH         LINE#         37
  C:0D2DH         LINE#         38
  -------         ENDPROC       _WRITE_DS1302_BYTE
  -------         PROC          _READ_DS1302_BYTE
  D:0007H         SYMBOL        address
  -------         DO            
  D:0007H         SYMBOL        i
  D:0005H         SYMBOL        temp
  -------         ENDDO         
  C:0A14H         LINE#         41
  C:0A14H         LINE#         42
  C:0A14H         LINE#         43
  C:0A16H         LINE#         44
  C:0A18H         LINE#         45
  C:0A19H         LINE#         46
  C:0A1BH         LINE#         47
  C:0A1CH         LINE#         48
  C:0A1EH         LINE#         49
  C:0A1FH         LINE#         50
  C:0A22H         LINE#         51
  C:0A2EH         LINE#         52
  C:0A2EH         LINE#         53
BL51 BANKED LINKER/LOCATER V6.22.2.0                                                  03/19/2024  17:03:06  PAGE 14


  C:0A30H         LINE#         54
  C:0A34H         LINE#         55
  C:0A37H         LINE#         56
  C:0A3AH         LINE#         57
  C:0A3CH         LINE#         58
  C:0A3FH         LINE#         59
  C:0A41H         LINE#         60
  C:0A42H         LINE#         61
  C:0A44H         LINE#         62
  C:0A45H         LINE#         63
  C:0A47H         LINE#         64
  C:0A48H         LINE#         65
  C:0A4AH         LINE#         66
  C:0A4BH         LINE#         67
  C:0A4DH         LINE#         68
  C:0A4EH         LINE#         69
  C:0A50H         LINE#         70
  -------         ENDPROC       _READ_DS1302_BYTE
  -------         PROC          _SET_RTC
  D:0008H         SYMBOL        ucRtc
  -------         DO            
  D:0004H         SYMBOL        i
  -------         ENDDO         
  C:09D6H         LINE#         72
  C:09DCH         LINE#         73
  C:09DCH         LINE#         75
  C:09E3H         LINE#         76
  C:09EFH         LINE#         77
  C:09EFH         LINE#         78
  C:0A0AH         LINE#         79
  C:0A0DH         LINE#         80
  -------         ENDPROC       _SET_RTC
  -------         PROC          _READ_RTC
  D:000CH         SYMBOL        ucRtc
  -------         DO            
  D:0004H         SYMBOL        i
  -------         ENDDO         
  C:0B2AH         LINE#         83
  C:0B30H         LINE#         84
  C:0B30H         LINE#         86
  C:0B3CH         LINE#         87
  C:0B3CH         LINE#         88
  C:0B57H         LINE#         89
  C:0B5AH         LINE#         90
  -------         ENDPROC       _READ_RTC
  -------         ENDMOD        DS1302

  -------         MODULE        IIC
  C:0000H         SYMBOL        _ICE_DUMMY_
  D:0080H         PUBLIC        P0
  D:0090H         PUBLIC        P1
  D:00A0H         PUBLIC        P2
  D:00B0H         PUBLIC        P3
  C:0B5BH         PUBLIC        _Ad_Read
  D:00C0H         PUBLIC        P4
  D:00C8H         PUBLIC        P5
  D:00E8H         PUBLIC        P6
BL51 BANKED LINKER/LOCATER V6.22.2.0                                                  03/19/2024  17:03:06  PAGE 15


  D:00F8H         PUBLIC        P7
  D:00A8H         PUBLIC        IE
  C:0CDAH         SYMBOL        _I2C_Delay
  D:00B8H         PUBLIC        IP
  C:0BD3H         PUBLIC        I2CReceiveByte
  D:00D8H         PUBLIC        CCON
  D:0098H         PUBLIC        SCON
  D:0088H         PUBLIC        TCON
  B:00A0H.1       PUBLIC        sda
  B:00A0H.0       PUBLIC        scl
  C:0D50H         PUBLIC        I2CStart
  C:0003H         PUBLIC        _I2CSendAck
  C:0AC1H         PUBLIC        _I2CSendByte
  C:0D08H         PUBLIC        I2CWaitAck
  C:0D5FH         PUBLIC        I2CStop
  D:00D0H         PUBLIC        PSW
  C:0CD6H         SYMBOL        L?0022
  -------         PROC          L?0021
  -------         ENDPROC       L?0021
  C:0CD6H         SYMBOL        L?0022
  -------         PROC          _I2C_DELAY
  D:0007H         SYMBOL        n
  C:0CDAH         LINE#         12
  C:0CDAH         LINE#         13
  C:0CDAH         LINE#         15
  C:0CDAH         LINE#         16
  C:0CDBH         LINE#         17
  C:0CDCH         LINE#         18
  C:0CDDH         LINE#         19
  C:0CDEH         LINE#         20
  C:0CDFH         LINE#         21
  C:0CE0H         LINE#         22
  C:0CE1H         LINE#         23
  C:0CE2H         LINE#         24
  C:0CE3H         LINE#         25
  C:0CE4H         LINE#         26
  C:0CE5H         LINE#         27
  C:0CE6H         LINE#         28
  C:0CE7H         LINE#         29
  C:0CE8H         LINE#         30
  C:0CE9H         LINE#         31
  C:0CEFH         LINE#         32
  -------         ENDPROC       _I2C_DELAY
  -------         PROC          I2CSTART
  C:0D50H         LINE#         35
  C:0D50H         LINE#         36
  C:0D50H         LINE#         37
  C:0D52H         LINE#         38
  C:0D52H         LINE#         39
  C:0D55H         LINE#         40
  C:0D57H         LINE#         41
  C:0D5CH         LINE#         42
  C:0D5EH         LINE#         43
  -------         ENDPROC       I2CSTART
  -------         PROC          I2CSTOP
  C:0D5FH         LINE#         46
  C:0D5FH         LINE#         47
BL51 BANKED LINKER/LOCATER V6.22.2.0                                                  03/19/2024  17:03:06  PAGE 16


  C:0D5FH         LINE#         48
  C:0D61H         LINE#         49
  C:0D61H         LINE#         50
  C:0D64H         LINE#         51
  C:0D66H         LINE#         52
  -------         ENDPROC       I2CSTOP
  -------         PROC          _I2CSENDBYTE
  D:0005H         SYMBOL        byt
  -------         DO            
  D:0004H         SYMBOL        i
  -------         ENDDO         
  C:0AC1H         LINE#         56
  C:0AC3H         LINE#         57
  C:0AC3H         LINE#         60
  C:0ACFH         LINE#         61
  C:0ACFH         LINE#         62
  C:0AD1H         LINE#         63
  C:0AD6H         LINE#         64
  C:0ADAH         LINE#         65
  C:0ADAH         LINE#         66
  C:0ADCH         LINE#         67
  C:0ADEH         LINE#         69
  C:0ADEH         LINE#         70
  C:0AE0H         LINE#         71
  C:0AE0H         LINE#         72
  C:0AE5H         LINE#         73
  C:0AE7H         LINE#         74
  C:0AEBH         LINE#         75
  C:0AF0H         LINE#         76
  C:0AF3H         LINE#         78
  C:0AF5H         LINE#         79
  -------         ENDPROC       _I2CSENDBYTE
  -------         PROC          I2CRECEIVEBYTE
  -------         DO            
  D:0005H         SYMBOL        da
  D:0004H         SYMBOL        i
  -------         ENDDO         
  C:0BD3H         LINE#         82
  C:0BD3H         LINE#         83
  C:0BD3H         LINE#         86
  C:0BDFH         LINE#         87
  C:0BDFH         LINE#         88
  C:0BDFH         LINE#         89
  C:0BE2H         LINE#         90
  C:0BE6H         LINE#         91
  C:0BE9H         LINE#         92
  C:0BECH         LINE#         93
  C:0BEEH         LINE#         94
  C:0BF3H         LINE#         95
  C:0BF6H         LINE#         96
  C:0BF8H         LINE#         97
  -------         ENDPROC       I2CRECEIVEBYTE
  -------         PROC          L?0023
  -------         ENDPROC       L?0023
  -------         PROC          I2CWAITACK
  -------         DO            
  D:0005H         SYMBOL        ackbit
BL51 BANKED LINKER/LOCATER V6.22.2.0                                                  03/19/2024  17:03:06  PAGE 17


  -------         ENDDO         
  C:0D08H         LINE#         100
  C:0D08H         LINE#         101
  C:0D08H         LINE#         104
  C:0D08H         LINE#         105
  C:0D0BH         LINE#         106
  C:0D10H         LINE#         107
  C:0D12H         LINE#         108
  C:0D17H         LINE#         110
  C:0D19H         LINE#         111
  -------         ENDPROC       I2CWAITACK
  -------         PROC          _I2CSENDACK
  D:0007H         SYMBOL        ackbit
  C:0003H         LINE#         114
  C:0003H         LINE#         115
  C:0003H         LINE#         116
  C:0005H         LINE#         117
  C:000AH         LINE#         118
  C:000FH         LINE#         119
  C:000FH         LINE#         120
  C:0012H         LINE#         121
  C:0014H         LINE#         122
  C:0016H         LINE#         123
  -------         ENDPROC       _I2CSENDACK
  -------         PROC          _AD_READ
  D:0003H         SYMBOL        addr
  -------         DO            
  D:0005H         SYMBOL        temp
  -------         ENDDO         
  C:0B5BH         LINE#         126
  C:0B5DH         LINE#         127
  C:0B5DH         LINE#         130
  C:0B60H         LINE#         131
  C:0B62H         LINE#         132
  C:0B65H         LINE#         133
  C:0B67H         LINE#         134
  C:0B6AH         LINE#         136
  C:0B6DH         LINE#         137
  C:0B72H         LINE#         138
  C:0B75H         LINE#         139
  C:0B7AH         LINE#         140
  C:0B7FH         LINE#         141
  C:0B82H         LINE#         142
  C:0B84H         LINE#         143
  -------         ENDPROC       _AD_READ
  -------         ENDMOD        IIC

  -------         MODULE        INIT
  C:0000H         SYMBOL        _ICE_DUMMY_
  C:0C81H         PUBLIC        System_Init
  D:0080H         PUBLIC        P0
  D:0090H         PUBLIC        P1
  D:00A0H         PUBLIC        P2
  D:00B0H         PUBLIC        P3
  D:00C0H         PUBLIC        P4
  D:00C8H         PUBLIC        P5
  D:00E8H         PUBLIC        P6
BL51 BANKED LINKER/LOCATER V6.22.2.0                                                  03/19/2024  17:03:06  PAGE 18


  D:00F8H         PUBLIC        P7
  D:00A8H         PUBLIC        IE
  D:00B8H         PUBLIC        IP
  D:00D8H         PUBLIC        CCON
  D:0098H         PUBLIC        SCON
  D:0088H         PUBLIC        TCON
  D:00D0H         PUBLIC        PSW
  -------         PROC          SYSTEM_INIT
  C:0C81H         LINE#         2
  C:0C81H         LINE#         3
  C:0C81H         LINE#         4
  C:0C84H         LINE#         5
  C:0C8CH         LINE#         6
  C:0C8FH         LINE#         8
  C:0C92H         LINE#         9
  C:0C9AH         LINE#         10
  C:0C9DH         LINE#         11
  -------         ENDPROC       SYSTEM_INIT
  -------         ENDMOD        INIT

  -------         MODULE        LED
  C:0000H         SYMBOL        _ICE_DUMMY_
  D:0080H         PUBLIC        P0
  D:0090H         PUBLIC        P1
  D:00A0H         PUBLIC        P2
  D:00B0H         PUBLIC        P3
  D:00C0H         PUBLIC        P4
  D:00C8H         PUBLIC        P5
  D:00E8H         PUBLIC        P6
  D:00F8H         PUBLIC        P7
  C:0A51H         PUBLIC        _Led_Disp
  D:00A8H         PUBLIC        IE
  D:00B8H         PUBLIC        IP
  D:00D8H         PUBLIC        CCON
  D:0098H         PUBLIC        SCON
  D:0088H         PUBLIC        TCON
  D:00D0H         PUBLIC        PSW
  -------         PROC          _LED_DISP
  D:0007H         SYMBOL        addr
  B:0020H.6       SYMBOL        enable
  -------         DO            
  D:000FH         SYMBOL        temp
  D:0010H         SYMBOL        temp_old
  -------         ENDDO         
  C:0A51H         LINE#         3
  C:0A51H         LINE#         4
  C:0A51H         LINE#         7
  C:0A54H         LINE#         8
  C:0A63H         LINE#         10
  C:0A71H         LINE#         12
  C:0A77H         LINE#         13
  C:0A77H         LINE#         14
  C:0A7CH         LINE#         15
  C:0A84H         LINE#         16
  C:0A87H         LINE#         17
  C:0A8AH         LINE#         18
  C:0A8AH         LINE#         19
BL51 BANKED LINKER/LOCATER V6.22.2.0                                                  03/19/2024  17:03:06  PAGE 19


  -------         ENDPROC       _LED_DISP
  -------         ENDMOD        LED

  -------         MODULE        ONEWIRE
  C:0000H         SYMBOL        _ICE_DUMMY_
  D:0090H         PUBLIC        P1
  D:00B0H         PUBLIC        P3
  C:0C40H         PUBLIC        Read_DS18B20
  D:00A8H         PUBLIC        IE
  C:0C67H         PUBLIC        _Delay_OneWire
  C:0B85H         PUBLIC        _Write_DS18B20
  B:0090H.4       PUBLIC        DQ
  D:00B8H         PUBLIC        IP
  C:0BACH         PUBLIC        init_ds18b20
  D:0098H         PUBLIC        SCON
  D:0088H         PUBLIC        TCON
  D:00C8H         PUBLIC        T2CON
  C:0AF6H         PUBLIC        rd_temperature
  D:00D0H         PUBLIC        PSW
  C:0C63H         SYMBOL        L?0020
  -------         PROC          L?0019
  -------         ENDPROC       L?0019
  C:0C63H         SYMBOL        L?0020
  -------         PROC          _DELAY_ONEWIRE
  D:0006H         SYMBOL        t
  -------         DO            
  D:0005H         SYMBOL        i
  -------         ENDDO         
  C:0C67H         LINE#         10
  C:0C67H         LINE#         11
  C:0C67H         LINE#         13
  C:0C71H         LINE#         14
  C:0C71H         LINE#         15
  C:0C80H         LINE#         17
  C:0C80H         LINE#         18
  -------         ENDPROC       _DELAY_ONEWIRE
  -------         PROC          _WRITE_DS18B20
  D:0001H         SYMBOL        dat
  -------         DO            
  D:0003H         SYMBOL        i
  -------         ENDDO         
  C:0B85H         LINE#         21
  C:0B87H         LINE#         22
  C:0B87H         LINE#         24
  C:0B93H         LINE#         25
  C:0B93H         LINE#         26
  C:0B95H         LINE#         27
  C:0B99H         LINE#         28
  C:0B9CH         LINE#         29
  C:0B9EH         LINE#         30
  C:0BA2H         LINE#         31
  C:0BA5H         LINE#         32
  -------         ENDPROC       _WRITE_DS18B20
  -------         PROC          READ_DS18B20
  -------         DO            
  D:0003H         SYMBOL        i
  D:0004H         SYMBOL        dat
BL51 BANKED LINKER/LOCATER V6.22.2.0                                                  03/19/2024  17:03:06  PAGE 20


  -------         ENDDO         
  C:0C40H         LINE#         36
  C:0C40H         LINE#         37
  C:0C40H         LINE#         41
  C:0C4CH         LINE#         42
  C:0C4CH         LINE#         43
  C:0C4EH         LINE#         44
  C:0C52H         LINE#         45
  C:0C54H         LINE#         46
  C:0C57H         LINE#         47
  C:0C57H         LINE#         48
  C:0C5AH         LINE#         49
  C:0C5AH         LINE#         50
  C:0C5DH         LINE#         51
  C:0C60H         LINE#         52
  C:0C62H         LINE#         53
  -------         ENDPROC       READ_DS18B20
  -------         PROC          INIT_DS18B20
  -------         DO            
  B:0020H.7       SYMBOL        initflag
  -------         ENDDO         
  C:0BACH         LINE#         56
  C:0BACH         LINE#         57
  C:0BACH         LINE#         58
  C:0BAEH         LINE#         60
  C:0BB0H         LINE#         61
  C:0BB7H         LINE#         62
  C:0BB9H         LINE#         63
  C:0BC0H         LINE#         64
  C:0BC2H         LINE#         65
  C:0BC9H         LINE#         66
  C:0BCDH         LINE#         67
  C:0BD0H         LINE#         69
  C:0BD2H         LINE#         70
  -------         ENDPROC       INIT_DS18B20
  -------         PROC          RD_TEMPERATURE
  -------         DO            
  D:0001H         SYMBOL        low
  D:0007H         SYMBOL        high
  -------         ENDDO         
  C:0AF6H         LINE#         71
  C:0AF6H         LINE#         72
  C:0AF6H         LINE#         75
  C:0AF9H         LINE#         76
  C:0AFEH         LINE#         77
  C:0B03H         LINE#         79
  C:0B06H         LINE#         80
  C:0B0BH         LINE#         81
  C:0B10H         LINE#         83
  C:0B15H         LINE#         84
  C:0B18H         LINE#         85
  -------         ENDPROC       RD_TEMPERATURE
  -------         ENDMOD        ONEWIRE

  -------         MODULE        SEG
  C:0000H         SYMBOL        _ICE_DUMMY_
  D:0080H         PUBLIC        P0
BL51 BANKED LINKER/LOCATER V6.22.2.0                                                  03/19/2024  17:03:06  PAGE 21


  D:0090H         PUBLIC        P1
  D:00A0H         PUBLIC        P2
  D:00B0H         PUBLIC        P3
  D:00C0H         PUBLIC        P4
  D:00C8H         PUBLIC        P5
  D:00E8H         PUBLIC        P6
  D:00F8H         PUBLIC        P7
  D:00A8H         PUBLIC        IE
  C:0A8BH         PUBLIC        _Seg_Disp
  D:00B8H         PUBLIC        IP
  D:00D8H         PUBLIC        CCON
  D:0098H         PUBLIC        SCON
  D:0088H         PUBLIC        TCON
  D:005FH         PUBLIC        seg_dula
  D:0071H         PUBLIC        seg_wela
  D:00D0H         PUBLIC        PSW
  -------         PROC          _SEG_DISP
  D:0007H         SYMBOL        wela
  D:0005H         SYMBOL        dula
  D:0003H         SYMBOL        point
  C:0A8BH         LINE#         9
  C:0A8BH         LINE#         10
  C:0A8BH         LINE#         12
  C:0A8EH         LINE#         13
  C:0A96H         LINE#         15
  C:0A9DH         LINE#         16
  C:0AA5H         LINE#         17
  C:0AA8H         LINE#         19
  C:0AAFH         LINE#         20
  C:0AB2H         LINE#         21
  C:0AB5H         LINE#         22
  C:0ABDH         LINE#         23
  C:0AC0H         LINE#         24
  -------         ENDPROC       _SEG_DISP
  -------         ENDMOD        SEG

  -------         MODULE        ?C?FPMUL
  C:001EH         PUBLIC        ?C?FPMUL
  -------         ENDMOD        ?C?FPMUL

  -------         MODULE        ?C?FPDIV
  C:0127H         PUBLIC        ?C?FPDIV
  -------         ENDMOD        ?C?FPDIV

  -------         MODULE        ?C?FCAST
  C:01CEH         PUBLIC        ?C?FCASTC
  C:01C9H         PUBLIC        ?C?FCASTI
  C:01C4H         PUBLIC        ?C?FCASTL
  -------         ENDMOD        ?C?FCAST

  -------         MODULE        ?C?CASTF
  C:0202H         PUBLIC        ?C?CASTF
  -------         ENDMOD        ?C?CASTF

  -------         MODULE        ?C?CLDOPTR
  C:0283H         PUBLIC        ?C?CLDOPTR
  -------         ENDMOD        ?C?CLDOPTR
BL51 BANKED LINKER/LOCATER V6.22.2.0                                                  03/19/2024  17:03:06  PAGE 22



  -------         MODULE        ?C?CSTOPTR
  C:02B0H         PUBLIC        ?C?CSTOPTR
  -------         ENDMOD        ?C?CSTOPTR

  -------         MODULE        ?C?IMUL
  C:02D2H         PUBLIC        ?C?IMUL
  -------         ENDMOD        ?C?IMUL

  -------         MODULE        ?C?UIDIV
  C:02E4H         PUBLIC        ?C?UIDIV
  -------         ENDMOD        ?C?UIDIV

  -------         MODULE        ?C?LNEG
  C:0339H         PUBLIC        ?C?LNEG
  -------         ENDMOD        ?C?LNEG

Program Size: data=107.0 xdata=0 code=3435
LINK/LOCATE RUN COMPLETE.  0 WARNING(S),  0 ERROR(S)
